target datalayout = "e-m:e-p270:32:32-p271:32:32-p272:64:64-i64:64-i128:128-f80:128-n8:16:32:64-S128"
target triple = "x86_64-pc-linux-gnu"

%struct.AVFilterContext = type { ptr, ptr, ptr, ptr, ptr, i32, ptr, ptr, i32, ptr, ptr, i32, i32, ptr, ptr, ptr, ptr, i32, ptr, i32, i32 }
%struct.AVRational = type { i32, i32 }
%struct.AVFilterLink = type { ptr, ptr, ptr, ptr, i32, i32, i32, i32, %struct.AVRational, i32, i32, i32, %struct.AVChannelLayout, %struct.AVRational, ptr, i32, %struct.AVFilterFormatsConfig, %struct.AVFilterFormatsConfig }
%struct.AVChannelLayout = type { i32, i32, %union.anon.1, ptr }
%union.anon.1 = type { i64 }
%struct.AVFilterFormatsConfig = type { ptr, ptr, ptr, ptr, ptr }
%struct.SetTBContext = type { ptr, ptr, [3 x double] }

@var_names = internal constant [4 x ptr] [ptr @.str.8, ptr @.str.9, ptr @.str.10, ptr null], align 16
@.str.5 = private unnamed_addr constant [39 x i8] c"Invalid expression '%s' for timebase.\0A\00", align 1
@.str.6 = private unnamed_addr constant [64 x i8] c"Invalid non-positive values for the timebase num:%d or den:%d.\0A\00", align 1
@.str.7 = private unnamed_addr constant [22 x i8] c"tb:%d/%d -> tb:%d/%d\0A\00", align 1

; Function Attrs: inlinehint nounwind uwtable
define internal double @av_q2d(i64 %0) #2 {
  %2 = alloca %struct.AVRational, align 4
  store i64 %0, ptr %2, align 4
  %3 = getelementptr inbounds nuw %struct.AVRational, ptr %2, i32 0, i32 0
  %4 = load i32, ptr %3, align 4, !tbaa !41
  %5 = sitofp i32 %4 to double
  %6 = getelementptr inbounds nuw %struct.AVRational, ptr %2, i32 0, i32 1
  %7 = load i32, ptr %6, align 4, !tbaa !42
  %8 = sitofp i32 %7 to double
  %9 = fdiv nsz double %5, %8
  ret double %9
}

; Function Attrs: nounwind uwtable
define internal i32 @config_output_props(ptr noundef %0) #0 {
  %2 = alloca i32, align 4
  %3 = alloca ptr, align 8
  %4 = alloca ptr, align 8
  %5 = alloca ptr, align 8
  %6 = alloca ptr, align 8
  %7 = alloca %struct.AVRational, align 4
  %8 = alloca i32, align 4
  %9 = alloca double, align 8
  %10 = alloca %struct.AVRational, align 4
  %11 = alloca i32, align 4
  %12 = alloca %struct.AVRational, align 4
  store ptr %0, ptr %3, align 8, !tbaa !22
  call void @llvm.lifetime.start.p0(i64 8, ptr %4) #6
  %13 = load ptr, ptr %3, align 8, !tbaa !22
  %14 = getelementptr inbounds nuw %struct.AVFilterLink, ptr %13, i32 0, i32 0
  %15 = load ptr, ptr %14, align 8, !tbaa !30
  store ptr %15, ptr %4, align 8, !tbaa !4
  call void @llvm.lifetime.start.p0(i64 8, ptr %5) #6
  %16 = load ptr, ptr %4, align 8, !tbaa !4
  %17 = getelementptr inbounds nuw %struct.AVFilterContext, ptr %16, i32 0, i32 9
  %18 = load ptr, ptr %17, align 8, !tbaa !38
  store ptr %18, ptr %5, align 8, !tbaa !39
  call void @llvm.lifetime.start.p0(i64 8, ptr %6) #6
  %19 = load ptr, ptr %4, align 8, !tbaa !4
  %20 = getelementptr inbounds nuw %struct.AVFilterContext, ptr %19, i32 0, i32 4
  %21 = load ptr, ptr %20, align 8, !tbaa !9
  %22 = getelementptr inbounds ptr, ptr %21, i64 0
  %23 = load ptr, ptr %22, align 8, !tbaa !22
  store ptr %23, ptr %6, align 8, !tbaa !22
  call void @llvm.lifetime.start.p0(i64 8, ptr %7) #6
  call void @llvm.lifetime.start.p0(i64 4, ptr %8) #6
  call void @llvm.lifetime.start.p0(i64 8, ptr %9) #6
  %24 = getelementptr inbounds nuw %struct.AVRational, ptr %10, i32 0, i32 0
  store i32 1, ptr %24, align 4, !tbaa !41
  %25 = getelementptr inbounds nuw %struct.AVRational, ptr %10, i32 0, i32 1
  store i32 1000000, ptr %25, align 4, !tbaa !42
  %26 = load i64, ptr %10, align 4
  %27 = call nsz double @av_q2d(i64 %26)
  %28 = load ptr, ptr %5, align 8, !tbaa !39
  %29 = getelementptr inbounds nuw %struct.SetTBContext, ptr %28, i32 0, i32 2
  %30 = getelementptr inbounds [3 x double], ptr %29, i64 0, i64 0
  store double %27, ptr %30, align 8, !tbaa !43
  %31 = load ptr, ptr %6, align 8, !tbaa !22
  %32 = getelementptr inbounds nuw %struct.AVFilterLink, ptr %31, i32 0, i32 13
  %33 = load i64, ptr %32, align 8
  %34 = call nsz double @av_q2d(i64 %33)
  %35 = load ptr, ptr %5, align 8, !tbaa !39
  %36 = getelementptr inbounds nuw %struct.SetTBContext, ptr %35, i32 0, i32 2
  %37 = getelementptr inbounds [3 x double], ptr %36, i64 0, i64 1
  store double %34, ptr %37, align 8, !tbaa !43
  %38 = load ptr, ptr %6, align 8, !tbaa !22
  %39 = getelementptr inbounds nuw %struct.AVFilterLink, ptr %38, i32 0, i32 11
  %40 = load i32, ptr %39, align 8, !tbaa !45
  %41 = sitofp i32 %40 to double
  %42 = load ptr, ptr %5, align 8, !tbaa !39
  %43 = getelementptr inbounds nuw %struct.SetTBContext, ptr %42, i32 0, i32 2
  %44 = getelementptr inbounds [3 x double], ptr %43, i64 0, i64 2
  store double %41, ptr %44, align 8, !tbaa !43
  %45 = load ptr, ptr %6, align 8, !tbaa !22
  %46 = getelementptr inbounds nuw %struct.AVFilterLink, ptr %45, i32 0, i32 6
  %47 = load i32, ptr %46, align 8, !tbaa !46
  %48 = load ptr, ptr %3, align 8, !tbaa !22
  %49 = getelementptr inbounds nuw %struct.AVFilterLink, ptr %48, i32 0, i32 6
  store i32 %47, ptr %49, align 8, !tbaa !46
  %50 = load ptr, ptr %6, align 8, !tbaa !22
  %51 = getelementptr inbounds nuw %struct.AVFilterLink, ptr %50, i32 0, i32 7
  %52 = load i32, ptr %51, align 4, !tbaa !47
  %53 = load ptr, ptr %3, align 8, !tbaa !22
  %54 = getelementptr inbounds nuw %struct.AVFilterLink, ptr %53, i32 0, i32 7
  store i32 %52, ptr %54, align 4, !tbaa !47
  %55 = load ptr, ptr %5, align 8, !tbaa !39
  %56 = getelementptr inbounds nuw %struct.SetTBContext, ptr %55, i32 0, i32 1
  %57 = load ptr, ptr %56, align 8, !tbaa !48
  %58 = load ptr, ptr %5, align 8, !tbaa !39
  %59 = getelementptr inbounds nuw %struct.SetTBContext, ptr %58, i32 0, i32 2
  %60 = getelementptr inbounds [3 x double], ptr %59, i64 0, i64 0
  %61 = call i32 @av_expr_parse_and_eval(ptr noundef %9, ptr noundef %57, ptr noundef @var_names, ptr noundef %60, ptr noundef null, ptr noundef null, ptr noundef null, ptr noundef null, ptr noundef null, i32 noundef 0, ptr noundef null)
  store i32 %61, ptr %8, align 4, !tbaa !25
  %62 = icmp slt i32 %61, 0
  br i1 %62, label %63, label %69

63:                                               ; preds = %1
  %64 = load ptr, ptr %4, align 8, !tbaa !4
  %65 = load ptr, ptr %5, align 8, !tbaa !39
  %66 = getelementptr inbounds nuw %struct.SetTBContext, ptr %65, i32 0, i32 1
  %67 = load ptr, ptr %66, align 8, !tbaa !48
  call void (ptr, i32, ptr, ...) @av_log(ptr noundef %64, i32 noundef 16, ptr noundef @.str.5, ptr noundef %67)
  %68 = load i32, ptr %8, align 4, !tbaa !25
  store i32 %68, ptr %2, align 4
  store i32 1, ptr %11, align 4
  br label %107

69:                                               ; preds = %1
  call void @llvm.lifetime.start.p0(i64 8, ptr %12) #6
  %70 = load double, ptr %9, align 8, !tbaa !43
  %71 = call i64 @av_d2q(double noundef %70, i32 noundef 2147483647) #7
  store i64 %71, ptr %12, align 4
  call void @llvm.memcpy.p0.p0.i64(ptr align 4 %7, ptr align 4 %12, i64 8, i1 false), !tbaa.struct !50
  call void @llvm.lifetime.end.p0(i64 8, ptr %12) #6
  %72 = getelementptr inbounds nuw %struct.AVRational, ptr %7, i32 0, i32 0
  %73 = load i32, ptr %72, align 4, !tbaa !41
  %74 = icmp sle i32 %73, 0
  br i1 %74, label %79, label %75

75:                                               ; preds = %69
  %76 = getelementptr inbounds nuw %struct.AVRational, ptr %7, i32 0, i32 1
  %77 = load i32, ptr %76, align 4, !tbaa !42
  %78 = icmp sle i32 %77, 0
  br i1 %78, label %79, label %85

79:                                               ; preds = %75, %69
  %80 = load ptr, ptr %4, align 8, !tbaa !4
  %81 = getelementptr inbounds nuw %struct.AVRational, ptr %7, i32 0, i32 0
  %82 = load i32, ptr %81, align 4, !tbaa !41
  %83 = getelementptr inbounds nuw %struct.AVRational, ptr %7, i32 0, i32 1
  %84 = load i32, ptr %83, align 4, !tbaa !42
  call void (ptr, i32, ptr, ...) @av_log(ptr noundef %80, i32 noundef 16, ptr noundef @.str.6, i32 noundef %82, i32 noundef %84)
  store i32 -22, ptr %2, align 4
  store i32 1, ptr %11, align 4
  br label %107

85:                                               ; preds = %75
  %86 = load ptr, ptr %3, align 8, !tbaa !22
  %87 = getelementptr inbounds nuw %struct.AVFilterLink, ptr %86, i32 0, i32 13
  call void @llvm.memcpy.p0.p0.i64(ptr align 8 %87, ptr align 4 %7, i64 8, i1 false), !tbaa.struct !50
  %88 = load ptr, ptr %3, align 8, !tbaa !22
  %89 = getelementptr inbounds nuw %struct.AVFilterLink, ptr %88, i32 0, i32 0
  %90 = load ptr, ptr %89, align 8, !tbaa !30
  %91 = load ptr, ptr %6, align 8, !tbaa !22
  %92 = getelementptr inbounds nuw %struct.AVFilterLink, ptr %91, i32 0, i32 13
  %93 = getelementptr inbounds nuw %struct.AVRational, ptr %92, i32 0, i32 0
  %94 = load i32, ptr %93, align 8, !tbaa !51
  %95 = load ptr, ptr %6, align 8, !tbaa !22
  %96 = getelementptr inbounds nuw %struct.AVFilterLink, ptr %95, i32 0, i32 13
  %97 = getelementptr inbounds nuw %struct.AVRational, ptr %96, i32 0, i32 1
  %98 = load i32, ptr %97, align 4, !tbaa !52
  %99 = load ptr, ptr %3, align 8, !tbaa !22
  %100 = getelementptr inbounds nuw %struct.AVFilterLink, ptr %99, i32 0, i32 13
  %101 = getelementptr inbounds nuw %struct.AVRational, ptr %100, i32 0, i32 0
  %102 = load i32, ptr %101, align 8, !tbaa !51
  %103 = load ptr, ptr %3, align 8, !tbaa !22
  %104 = getelementptr inbounds nuw %struct.AVFilterLink, ptr %103, i32 0, i32 13
  %105 = getelementptr inbounds nuw %struct.AVRational, ptr %104, i32 0, i32 1
  %106 = load i32, ptr %105, align 4, !tbaa !52
  call void (ptr, i32, ptr, ...) @av_log(ptr noundef %90, i32 noundef 40, ptr noundef @.str.7, i32 noundef %94, i32 noundef %98, i32 noundef %102, i32 noundef %106)
  store i32 0, ptr %2, align 4
  store i32 1, ptr %11, align 4
  br label %107

107:                                              ; preds = %85, %79, %63
  call void @llvm.lifetime.end.p0(i64 8, ptr %9) #6
  call void @llvm.lifetime.end.p0(i64 4, ptr %8) #6
  call void @llvm.lifetime.end.p0(i64 8, ptr %7) #6
  call void @llvm.lifetime.end.p0(i64 8, ptr %6) #6
  call void @llvm.lifetime.end.p0(i64 8, ptr %5) #6
  call void @llvm.lifetime.end.p0(i64 8, ptr %4) #6
  %108 = load i32, ptr %2, align 4
  ret i32 %108
}