; Function Attrs: nounwind uwtable
define internal range(i32 -2147483648, 1) i32 @config_output_props(ptr noundef captures(none) initializes((40, 48)) %0) #0 {
  %2 = alloca double, align 8
  %3 = load ptr, ptr %0, align 8, !tbaa !43
  %4 = getelementptr inbounds nuw i8, ptr %3, i64 72
  %5 = load ptr, ptr %4, align 8, !tbaa !44
  %6 = getelementptr inbounds nuw i8, ptr %3, i64 32
  %7 = load ptr, ptr %6, align 8, !tbaa !4
  %8 = load ptr, ptr %7, align 8, !tbaa !20
  call void @llvm.lifetime.start.p0(i64 8, ptr nonnull %2) #4
  %9 = getelementptr inbounds nuw i8, ptr %5, i64 16
  store double 0x3EB0C6F7A0B5ED8D, ptr %9, align 8, !tbaa !45
  %10 = getelementptr inbounds nuw i8, ptr %8, i64 96
  %11 = load i64, ptr %10, align 8
  %.sroa.0.0.extract.trunc.i = trunc i64 %11 to i32
  %.sroa.2.0.extract.shift.i = lshr i64 %11, 32
  %.sroa.2.0.extract.trunc.i = trunc nuw i64 %.sroa.2.0.extract.shift.i to i32
  %12 = sitofp i32 %.sroa.0.0.extract.trunc.i to double
  %13 = sitofp i32 %.sroa.2.0.extract.trunc.i to double
  %14 = fdiv nsz double %12, %13
  %15 = getelementptr inbounds nuw i8, ptr %5, i64 24
  store double %14, ptr %15, align 8, !tbaa !45
  %16 = getelementptr inbounds nuw i8, ptr %8, i64 64
  %17 = load i32, ptr %16, align 8, !tbaa !47
  %18 = sitofp i32 %17 to double
  %19 = getelementptr inbounds nuw i8, ptr %5, i64 32
  store double %18, ptr %19, align 8, !tbaa !45
  %20 = getelementptr inbounds nuw i8, ptr %8, i64 40
  %21 = load i32, ptr %20, align 8, !tbaa !48
  %22 = getelementptr inbounds nuw i8, ptr %0, i64 40
  store i32 %21, ptr %22, align 8, !tbaa !48
  %23 = getelementptr inbounds nuw i8, ptr %8, i64 44
  %24 = load i32, ptr %23, align 4, !tbaa !49
  %25 = getelementptr inbounds nuw i8, ptr %0, i64 44
  store i32 %24, ptr %25, align 4, !tbaa !49
  %26 = getelementptr inbounds nuw i8, ptr %5, i64 8
  %27 = load ptr, ptr %26, align 8, !tbaa !50
  %28 = call i32 @av_expr_parse_and_eval(ptr noundef nonnull %2, ptr noundef %27, ptr noundef nonnull @var_names, ptr noundef nonnull %9, ptr noundef null, ptr noundef null, ptr noundef null, ptr noundef null, ptr noundef null, i32 noundef 0, ptr noundef null) #4
  %29 = icmp slt i32 %28, 0
  br i1 %29, label %30, label %32

30:                                               ; preds = %1
  %31 = load ptr, ptr %26, align 8, !tbaa !50
  call void (ptr, i32, ptr, ...) @av_log(ptr noundef nonnull %3, i32 noundef 16, ptr noundef nonnull @.str.5, ptr noundef %31) #4
  br label %44

32:                                               ; preds = %1
  %33 = load double, ptr %2, align 8, !tbaa !45
  %34 = call i64 @av_d2q(double noundef %33, i32 noundef 2147483647) #5
  %.sroa.04.0.extract.trunc = trunc i64 %34 to i32
  %.sroa.6.0.extract.shift = lshr i64 %34, 32
  %.sroa.6.0.extract.trunc = trunc nuw i64 %.sroa.6.0.extract.shift to i32
  %35 = icmp slt i32 %.sroa.04.0.extract.trunc, 1
  %36 = icmp slt i32 %.sroa.6.0.extract.trunc, 1
  %or.cond = select i1 %35, i1 true, i1 %36
  br i1 %or.cond, label %37, label %38

37:                                               ; preds = %32
  call void (ptr, i32, ptr, ...) @av_log(ptr noundef nonnull %3, i32 noundef 16, ptr noundef nonnull @.str.6, i32 noundef %.sroa.04.0.extract.trunc, i32 noundef %.sroa.6.0.extract.trunc) #4
  br label %44

38:                                               ; preds = %32
  %39 = getelementptr inbounds nuw i8, ptr %0, i64 96
  store i32 %.sroa.04.0.extract.trunc, ptr %39, align 8, !tbaa !41
  %.sroa.6.0..sroa_idx = getelementptr inbounds nuw i8, ptr %0, i64 100
  store i32 %.sroa.6.0.extract.trunc, ptr %.sroa.6.0..sroa_idx, align 4, !tbaa !41
  %40 = load ptr, ptr %0, align 8, !tbaa !43
  %41 = load i32, ptr %10, align 8, !tbaa !52
  %42 = getelementptr inbounds nuw i8, ptr %8, i64 100
  %43 = load i32, ptr %42, align 4, !tbaa !53
  call void (ptr, i32, ptr, ...) @av_log(ptr noundef %40, i32 noundef 40, ptr noundef nonnull @.str.7, i32 noundef %41, i32 noundef %43, i32 noundef %.sroa.04.0.extract.trunc, i32 noundef %.sroa.6.0.extract.trunc) #4
  br label %44

44:                                               ; preds = %38, %37, %30
  %.0 = phi i32 [ %28, %30 ], [ -22, %37 ], [ 0, %38 ]
  call void @llvm.lifetime.end.p0(i64 8, ptr nonnull %2) #4
  ret i32 %.0
}